; Function Attrs: uwtable
define noundef zeroext i1 @_ZTv0_n64_NK5arrow2io20SlowRandomAccessFile6closedEv(ptr noundef readonly captures(none) %0) unnamed_addr #11 align 2 {
  %2 = load ptr, ptr %0, align 8, !tbaa !3
  %3 = getelementptr inbounds i8, ptr %2, i64 -64
  %4 = load i64, ptr %3, align 8
  %5 = getelementptr inbounds i8, ptr %0, i64 %4
  %6 = getelementptr inbounds nuw i8, ptr %5, i64 24
  %7 = load ptr, ptr %6, align 8, !tbaa !61
  %8 = load ptr, ptr %7, align 8, !tbaa !3
  %9 = getelementptr i8, ptr %8, i64 -56
  %10 = load i64, ptr %9, align 8
  %11 = getelementptr inbounds i8, ptr %7, i64 %10
  %12 = load ptr, ptr %11, align 8, !tbaa !3
  %13 = getelementptr inbounds nuw i8, ptr %12, i64 48
  %14 = load ptr, ptr %13, align 8
  %15 = tail call noundef zeroext i1 %14(ptr noundef nonnull align 8 dereferenceable(28) %11)
  ret i1 %15
}